; Function Attrs: nounwind sspstrong uwtable
define internal i64 @enum_any(i32 noundef %0, ptr noundef readonly captures(none) %1, i64 noundef %2) #0 {
  %or.cond.i = icmp ugt i32 %0, 1
  br i1 %or.cond.i, label %4, label %rb_check_arity.exit

4:                                                ; preds = %3
  tail call void @rb_error_arity(i32 noundef %0, i32 noundef 0, i32 noundef 1) #15
  unreachable

rb_check_arity.exit:                              ; preds = %3
  %.not = icmp eq i32 %0, 0
  br i1 %.not, label %7, label %5

5:                                                ; preds = %rb_check_arity.exit
  %6 = load i64, ptr %1, align 8, !tbaa !7
  br label %7

7:                                                ; preds = %rb_check_arity.exit, %5
  %8 = phi i64 [ %6, %5 ], [ 0, %rb_check_arity.exit ]
  %9 = tail call i64 @rb_imemo_new(i32 noundef 5, i64 noundef 0, i64 noundef 40) #14
  %10 = inttoptr i64 %9 to ptr
  %11 = getelementptr inbounds nuw i8, ptr %10, i64 16
  store i64 0, ptr %11, align 8, !tbaa !7
  %12 = getelementptr inbounds nuw i8, ptr %10, i64 24
  store i64 %8, ptr %12, align 8, !tbaa !7
  %13 = getelementptr inbounds nuw i8, ptr %10, i64 32
  store i64 0, ptr %13, align 8, !tbaa !22
  %14 = icmp eq i32 %0, 1
  %15 = tail call i32 @rb_block_given_p() #14
  %.not7 = icmp eq i32 %15, 0
  br i1 %14, label %16, label %18

16:                                               ; preds = %7
  br i1 %.not7, label %.thread, label %17

17:                                               ; preds = %16
  tail call void (ptr, ...) @rb_warn(ptr noundef nonnull @.str.83) #16
  br label %.thread

18:                                               ; preds = %7
  %19 = select i1 %.not7, ptr @any_i, ptr @any_iter_i
  br label %.thread

.thread:                                          ; preds = %16, %17, %18
  %20 = phi ptr [ %19, %18 ], [ @any_eqq, %17 ], [ @any_eqq, %16 ]
  %21 = tail call i32 @rb_block_given_p() #14
  %.not9 = icmp eq i32 %21, 0
  br i1 %.not9, label %25, label %22

22:                                               ; preds = %.thread
  %23 = tail call i32 @rb_block_pair_yield_optimizable() #14
  %.not10 = icmp eq i32 %23, 0
  %24 = select i1 %.not10, i64 0, i64 2
  br label %25

25:                                               ; preds = %22, %.thread
  %26 = phi i64 [ 0, %.thread ], [ %24, %22 ]
  %27 = tail call i64 @rb_block_call2(i64 noundef %2, i64 noundef 3073, i32 noundef 0, ptr noundef null, ptr noundef nonnull %20, i64 noundef %9, i64 noundef %26) #14
  %28 = load i64, ptr %11, align 8, !tbaa !60
  ret i64 %28
}